Certificate:
    Data:
        Version: 3 (0x2)
        Serial Number: 1 (0x1)
        Signature Algorithm: sha256WithRSAEncryption
        Issuer: C=FR, ST=Radius, L=Somewhere, O=Example Inc./emailAddress=admin@example.org, CN=Example Certificate Authority
        Validity
            Not Before: Sep 27 17:52:44 2025 GMT
            Not After : Nov 26 17:52:44 2025 GMT
        Subject: C=FR, ST=Radius, O=Example Inc., CN=Example Server Certificate/emailAddress=admin@example.org
        Subject Public Key Info:
            Public Key Algorithm: rsaEncryption
                Public-Key: (2048 bit)
                Modulus:
                    00:a8:b0:77:96:aa:ca:61:dd:63:85:da:d3:9e:0b:
                    17:4f:4f:14:0c:51:11:1f:b0:04:58:24:d4:6e:88:
                    73:ca:ac:62:a7:9f:bf:62:af:5b:35:0e:a3:d3:19:
                    34:c3:35:88:24:e5:54:9e:d2:38:c3:73:f3:30:29:
                    fd:53:65:2f:45:55:93:20:a5:37:fd:e3:99:ce:15:
                    b6:08:d9:91:92:ca:e4:1c:0f:fa:78:bf:d9:97:49:
                    99:9b:d7:47:1f:82:8a:99:85:d2:14:45:25:d4:d7:
                    ec:74:69:c8:8b:75:ec:ec:ce:77:6c:12:11:54:77:
                    37:54:8b:04:ef:76:76:bf:cb:fa:4d:fc:65:38:b9:
                    9c:e6:1a:0c:7e:3b:67:1f:a6:13:fe:96:02:30:90:
                    79:cd:d0:4b:fc:cb:f1:1b:d9:5b:57:99:9f:2a:0e:
                    31:86:21:a2:10:79:fd:f8:ad:f0:62:5b:9d:30:42:
                    18:23:33:7e:93:05:09:39:a8:e3:a2:b0:97:9c:15:
                    5c:2b:57:1e:49:04:84:e8:42:27:4f:4b:a5:da:c5:
                    64:15:71:bb:5e:22:68:ae:55:81:b0:c9:e0:dd:a7:
                    4d:3e:14:f8:57:74:d7:8f:44:d9:e8:8d:e4:e2:4c:
                    4d:39:49:ef:bb:f8:45:bc:11:7c:e3:f2:76:05:f7:
                    48:51
                Exponent: 65537 (0x10001)
        X509v3 extensions:
            X509v3 Extended Key Usage: 
                TLS Web Server Authentication
            X509v3 CRL Distribution Points: 
                Full Name:
                  URI:http://www.example.com/example_ca.crl
            X509v3 Certificate Policies: 
                Policy: 1.3.6.1.4.1.40808.1.3.2
            X509v3 Subject Key Identifier: 
                17:25:8A:0E:95:D5:1E:BC:BD:9E:DC:81:77:55:DA:F7:89:11:74:BA
            X509v3 Authority Key Identifier: 
                18:F7:48:DF:B6:52:E6:29:C7:5D:A0:99:A3:A3:19:85:EF:48:8C:17
    Signature Algorithm: sha256WithRSAEncryption
    Signature Value:
        02:78:ad:ad:88:67:cf:88:9f:68:46:24:d2:2f:67:76:9c:97:
        be:f9:a7:38:3f:06:fc:7b:b9:23:28:fe:3c:e7:a1:81:46:c1:
        90:86:b9:c1:b6:6c:60:3f:45:69:2a:32:f2:e8:11:1f:42:df:
        67:ed:36:f4:ea:8b:ec:17:b9:90:f5:36:f2:76:d9:0a:fa:ef:
        85:08:f8:19:49:4f:e6:d4:06:52:29:ab:14:88:ef:ff:46:e8:
        86:65:73:e2:9e:99:db:13:60:36:b5:04:04:a7:4a:6e:15:c4:
        95:e3:29:bd:57:1a:6f:e1:33:93:6e:24:68:cb:c7:bd:ae:cf:
        b9:73:78:10:4c:89:3d:e3:0e:e3:d1:e7:25:9e:ec:3a:6a:1d:
        80:2a:90:36:82:60:a9:8b:b7:f7:eb:86:10:ce:85:7c:87:0c:
        be:c6:7b:a4:56:11:bf:72:ac:50:38:4f:d9:1f:c1:ee:58:77:
        40:be:db:77:7d:81:d9:ba:06:66:a7:76:74:49:46:56:84:92:
        06:c7:66:76:a2:b9:74:87:0d:91:81:25:5d:1b:82:98:ba:8c:
        dc:ab:c1:6c:b0:81:ce:95:8d:2c:45:2d:33:fd:23:f4:c1:2b:
        4e:b8:db:a3:20:a9:3f:c8:e9:a1:81:e0:f4:ad:97:9e:e2:24:
        e6:1e:a3:ff
-----BEGIN CERTIFICATE-----
MIIENjCCAx6gAwIBAgIBATANBgkqhkiG9w0BAQsFADCBkzELMAkGA1UEBhMCRlIx
DzANBgNVBAgMBlJhZGl1czESMBAGA1UEBwwJU29tZXdoZXJlMRUwEwYDVQQKDAxF
eGFtcGxlIEluYy4xIDAeBgkqhkiG9w0BCQEWEWFkbWluQGV4YW1wbGUub3JnMSYw
JAYDVQQDDB1FeGFtcGxlIENlcnRpZmljYXRlIEF1dGhvcml0eTAeFw0yNTA5Mjcx
NzUyNDRaFw0yNTExMjYxNzUyNDRaMHwxCzAJBgNVBAYTAkZSMQ8wDQYDVQQIDAZS
YWRpdXMxFTATBgNVBAoMDEV4YW1wbGUgSW5jLjEjMCEGA1UEAwwaRXhhbXBsZSBT
ZXJ2ZXIgQ2VydGlmaWNhdGUxIDAeBgkqhkiG9w0BCQEWEWFkbWluQGV4YW1wbGUu
b3JnMIIBIjANBgkqhkiG9w0BAQEFAAOCAQ8AMIIBCgKCAQEAqLB3lqrKYd1jhdrT
ngsXT08UDFERH7AEWCTUbohzyqxip5+/Yq9bNQ6j0xk0wzWIJOVUntI4w3PzMCn9
U2UvRVWTIKU3/eOZzhW2CNmRksrkHA/6eL/Zl0mZm9dHH4KKmYXSFEUl1NfsdGnI
i3Xs7M53bBIRVHc3VIsE73Z2v8v6TfxlOLmc5hoMfjtnH6YT/pYCMJB5zdBL/Mvx
G9lbV5mfKg4xhiGiEHn9+K3wYludMEIYIzN+kwUJOajjorCXnBVcK1ceSQSE6EIn
T0ul2sVkFXG7XiJorlWBsMng3adNPhT4V3TXj0TZ6I3k4kxNOUnvu/hFvBF84/J2
BfdIUQIDAQABo4GqMIGnMBMGA1UdJQQMMAoGCCsGAQUFBwMBMDYGA1UdHwQvMC0w
K6ApoCeGJWh0dHA6Ly93d3cuZXhhbXBsZS5jb20vZXhhbXBsZV9jYS5jcmwwGAYD
VR0gBBEwDzANBgsrBgEEAYK+aAEDAjAdBgNVHQ4EFgQUFyWKDpXVHry9ntyBd1Xa
94kRdLowHwYDVR0jBBgwFoAUGPdI37ZS5inHXaCZo6MZhe9IjBcwDQYJKoZIhvcN
AQELBQADggEBAAJ4ra2IZ8+In2hGJNIvZ3acl775pzg/Bvx7uSMo/jznoYFGwZCG
ucG2bGA/RWkqMvLoER9C32ftNvTqi+wXuZD1NvJ22Qr674UI+BlJT+bUBlIpqxSI
7/9G6IZlc+KemdsTYDa1BASnSm4VxJXjKb1XGm/hM5NuJGjLx72uz7lzeBBMiT3j
DuPR5yWe7DpqHYAqkDaCYKmLt/frhhDOhXyHDL7Ge6RWEb9yrFA4T9kfwe5Yd0C+
23d9gdm6BmandnRJRlaEkgbHZnaiuXSHDZGBJV0bgpi6jNyrwWywgc6VjSxFLTP9
I/TBK06426MgqT/I6aGB4PStl57iJOYeo/8=
-----END CERTIFICATE-----
