Certificate:
    Data:
        Version: 3 (0x2)
        Serial Number: 2 (0x2)
        Signature Algorithm: sha256WithRSAEncryption
        Issuer: C=FR, ST=Radius, L=Somewhere, O=Example Inc./emailAddress=admin@example.org, CN=Example Certificate Authority
        Validity
            Not Before: Sep 27 17:52:45 2025 GMT
            Not After : Nov 26 17:52:45 2025 GMT
        Subject: C=FR, ST=Radius, O=Example Inc., CN=user@example.org/emailAddress=user@example.org
        Subject Public Key Info:
            Public Key Algorithm: rsaEncryption
                Public-Key: (2048 bit)
                Modulus:
                    00:bd:00:49:db:88:56:f3:19:7e:66:50:2b:63:bb:
                    5a:92:3e:64:9a:f1:23:3e:ce:78:83:82:9b:88:dc:
                    3f:46:ab:89:39:5b:fa:24:2c:fc:30:0c:42:94:d1:
                    b1:85:32:45:b6:41:4b:14:4b:0b:19:b6:7b:ed:f2:
                    8c:b2:43:74:28:80:d3:7a:25:fb:86:c8:87:da:89:
                    e4:08:83:4b:c5:54:7a:47:3e:0c:23:fc:71:2b:10:
                    54:6c:ee:e6:9b:51:34:ac:27:7c:7b:ca:a3:c9:47:
                    a9:da:f1:a3:78:f2:82:c8:e7:39:39:91:1d:6f:0c:
                    27:cd:f2:9c:94:4c:f0:aa:31:fa:82:77:f9:7b:c2:
                    82:af:7b:14:d2:af:67:7a:8b:82:35:a9:5e:1c:44:
                    44:ce:89:45:80:4e:c5:3c:31:fb:e7:ef:3b:9b:23:
                    a6:3a:a9:28:38:36:f0:a0:f2:40:e6:de:c1:1c:74:
                    86:3d:ae:d3:f4:b9:71:ae:93:63:13:eb:c0:77:79:
                    58:74:16:c5:f8:31:99:68:32:71:f2:50:5a:87:d0:
                    ec:4b:f8:ab:64:93:90:c2:c4:e5:48:5f:61:0f:3e:
                    f6:80:06:34:61:d1:f4:71:78:41:1a:39:44:4f:5a:
                    11:41:20:a9:4b:99:bd:87:c0:61:24:e3:b1:f3:ee:
                    b5:19
                Exponent: 65537 (0x10001)
        X509v3 extensions:
            X509v3 Extended Key Usage: 
                TLS Web Client Authentication
            X509v3 CRL Distribution Points: 
                Full Name:
                  URI:http://www.example.com/example_ca.crl
            X509v3 Subject Key Identifier: 
                96:15:F2:A1:07:0F:FE:58:A1:6A:F3:BF:E7:D9:67:9E:C1:5F:68:4A
            X509v3 Authority Key Identifier: 
                18:F7:48:DF:B6:52:E6:29:C7:5D:A0:99:A3:A3:19:85:EF:48:8C:17
    Signature Algorithm: sha256WithRSAEncryption
    Signature Value:
        02:4c:2d:20:55:63:57:e7:2c:eb:a7:82:d2:e7:0d:d6:e0:e0:
        0b:e2:a1:f9:5a:e2:14:2c:c0:a6:d3:b7:0b:d8:b8:34:8f:d2:
        1d:ee:a6:e7:8c:af:a5:dd:f3:f9:d1:ab:8d:88:18:37:ca:2b:
        a9:50:5b:7a:df:22:f1:aa:b4:44:f1:bf:25:24:59:5b:77:3a:
        ab:d4:1b:6b:3e:a5:f6:a8:60:c0:84:30:58:01:b7:d9:88:9a:
        26:f2:13:7d:0e:7e:92:7b:9a:21:e4:d2:ef:c1:dc:27:4d:62:
        40:9b:8c:93:a7:31:3d:88:db:4a:e5:f1:23:0d:a7:21:8a:73:
        a2:59:c0:a3:d3:1c:b7:3d:61:ce:20:9f:07:b9:c2:35:b2:fc:
        12:35:b3:44:a1:39:86:9e:60:45:ea:5b:52:68:66:64:0f:e5:
        df:37:67:de:b2:57:ae:da:21:af:6a:7e:0d:df:54:fd:7a:db:
        94:cf:6c:77:7f:11:c6:c9:a4:bc:4d:8a:f4:0d:66:4b:30:01:
        a2:9b:c6:d8:fd:10:76:c8:0c:1e:c9:45:1a:8e:b4:19:e9:5c:
        a1:57:7d:5b:77:65:12:2d:be:ad:d3:3b:af:ac:ac:bd:02:3d:
        1c:ce:fe:19:82:e7:84:e0:1d:95:48:52:97:6b:18:3d:e0:a3:
        ab:78:69:1b
-----BEGIN CERTIFICATE-----
MIIEETCCAvmgAwIBAgIBAjANBgkqhkiG9w0BAQsFADCBkzELMAkGA1UEBhMCRlIx
DzANBgNVBAgMBlJhZGl1czESMBAGA1UEBwwJU29tZXdoZXJlMRUwEwYDVQQKDAxF
eGFtcGxlIEluYy4xIDAeBgkqhkiG9w0BCQEWEWFkbWluQGV4YW1wbGUub3JnMSYw
JAYDVQQDDB1FeGFtcGxlIENlcnRpZmljYXRlIEF1dGhvcml0eTAeFw0yNTA5Mjcx
NzUyNDVaFw0yNTExMjYxNzUyNDVaMHExCzAJBgNVBAYTAkZSMQ8wDQYDVQQIDAZS
YWRpdXMxFTATBgNVBAoMDEV4YW1wbGUgSW5jLjEZMBcGA1UEAwwQdXNlckBleGFt
cGxlLm9yZzEfMB0GCSqGSIb3DQEJARYQdXNlckBleGFtcGxlLm9yZzCCASIwDQYJ
KoZIhvcNAQEBBQADggEPADCCAQoCggEBAL0ASduIVvMZfmZQK2O7WpI+ZJrxIz7O
eIOCm4jcP0ariTlb+iQs/DAMQpTRsYUyRbZBSxRLCxm2e+3yjLJDdCiA03ol+4bI
h9qJ5AiDS8VUekc+DCP8cSsQVGzu5ptRNKwnfHvKo8lHqdrxo3jygsjnOTmRHW8M
J83ynJRM8Kox+oJ3+XvCgq97FNKvZ3qLgjWpXhxERM6JRYBOxTwx++fvO5sjpjqp
KDg28KDyQObewRx0hj2u0/S5ca6TYxPrwHd5WHQWxfgxmWgycfJQWofQ7Ev4q2ST
kMLE5UhfYQ8+9oAGNGHR9HF4QRo5RE9aEUEgqUuZvYfAYSTjsfPutRkCAwEAAaOB
kDCBjTATBgNVHSUEDDAKBggrBgEFBQcDAjA2BgNVHR8ELzAtMCugKaAnhiVodHRw
Oi8vd3d3LmV4YW1wbGUuY29tL2V4YW1wbGVfY2EuY3JsMB0GA1UdDgQWBBSWFfKh
Bw/+WKFq87/n2WeewV9oSjAfBgNVHSMEGDAWgBQY90jftlLmKcddoJmjoxmF70iM
FzANBgkqhkiG9w0BAQsFAAOCAQEAAkwtIFVjV+cs66eC0ucN1uDgC+Kh+VriFCzA
ptO3C9i4NI/SHe6m54yvpd3z+dGrjYgYN8orqVBbet8i8aq0RPG/JSRZW3c6q9Qb
az6l9qhgwIQwWAG32YiaJvITfQ5+knuaIeTS78HcJ01iQJuMk6cxPYjbSuXxIw2n
IYpzolnAo9Mctz1hziCfB7nCNbL8EjWzRKE5hp5gRepbUmhmZA/l3zdn3rJXrtoh
r2p+Dd9U/XrblM9sd38RxsmkvE2K9A1mSzABopvG2P0QdsgMHslFGo60GelcoVd9
W3dlEi2+rdM7r6ysvQI9HM7+GYLnhOAdlUhSl2sYPeCjq3hpGw==
-----END CERTIFICATE-----
